target datalayout = "e-m:e-p270:32:32-p271:32:32-p272:64:64-i64:64-i128:128-f80:128-n8:16:32:64-S128"
target triple = "x86_64-pc-linux-gnu"

%struct.jit_State = type { %struct.GCtrace, ptr, ptr, ptr, ptr, ptr, ptr, i32, i32, i32, i8, i8, %struct.IRType1, i8, %struct.FoldState, ptr, i32, i32, i32, i32, i32, i32, i32, [1 x i32], [5 x %union.TValue], [3 x %union.TValue], ptr, i32, i32, i32, i32, ptr, ptr, i32, i32, i8, ptr, i32, i32, i16, [101 x i16], [258 x i32], [15 x i32], [16 x ptr], [64 x %struct.HotPenalty], i32, [16 x %struct.BPropEntry], i32, %struct.ScEvEntry, ptr, i32, i32, i32, ptr, i32, i32, ptr, ptr, ptr, i64, i64, %union.TValue, ptr, i32, i32 }
%struct.GCtrace = type { %struct.GCRef, i8, i8, i16, i32, i32, %struct.GCRef, ptr, i32, i32, ptr, ptr, %struct.GCRef, %struct.MRef, i32, i32, ptr, i32, i16, i16, i16, i16, i16, i16, i16, i8, i8, i8, i8 }
%struct.GCRef = type { i64 }
%struct.MRef = type { i64 }
%struct.IRType1 = type { i8 }
%struct.FoldState = type { %union.IRIns, [2 x %union.IRIns], [2 x %union.IRIns] }
%union.IRIns = type { %struct.GCRef }
%struct.HotPenalty = type { %struct.MRef, i16, i16 }
%struct.BPropEntry = type { i16, i16, i32 }
%struct.ScEvEntry = type { %struct.MRef, i16, i16, i16, i16, %struct.IRType1, i8 }
%union.TValue = type { i64 }
%struct.anon.0 = type { i32, %struct.IRType1, i8, i8, i8 }

; Function Attrs: nounwind uwtable
define internal i32 @fold_kfold_int64shift(ptr noundef %0) #0 {
  %2 = alloca ptr, align 8
  %3 = alloca i64, align 8
  %4 = alloca i32, align 4
  store ptr %0, ptr %2, align 8, !tbaa !4
  call void @llvm.lifetime.start.p0(i64 8, ptr %3) #8
  %5 = load ptr, ptr %2, align 8, !tbaa !4
  %6 = getelementptr inbounds nuw %struct.jit_State, ptr %5, i32 0, i32 14
  %7 = getelementptr inbounds nuw %struct.FoldState, ptr %6, i32 0, i32 1
  %8 = getelementptr inbounds [2 x %union.IRIns], ptr %7, i64 0, i64 1
  %9 = load i64, ptr %8, align 8, !tbaa !29
  store i64 %9, ptr %3, align 8, !tbaa !52
  call void @llvm.lifetime.start.p0(i64 4, ptr %4) #8
  %10 = load ptr, ptr %2, align 8, !tbaa !4
  %11 = getelementptr inbounds nuw %struct.jit_State, ptr %10, i32 0, i32 14
  %12 = getelementptr inbounds nuw %struct.FoldState, ptr %11, i32 0, i32 2
  %13 = getelementptr inbounds [2 x %union.IRIns], ptr %12, i64 0, i64 0
  %14 = load i32, ptr %13, align 8, !tbaa !29
  %15 = and i32 %14, 63
  store i32 %15, ptr %4, align 4, !tbaa !30
  %16 = load ptr, ptr %2, align 8, !tbaa !4
  %17 = load i64, ptr %3, align 8, !tbaa !52
  %18 = load i32, ptr %4, align 4, !tbaa !30
  %19 = load ptr, ptr %2, align 8, !tbaa !4
  %20 = getelementptr inbounds nuw %struct.jit_State, ptr %19, i32 0, i32 14
  %21 = getelementptr inbounds nuw %struct.FoldState, ptr %20, i32 0, i32 0
  %22 = getelementptr inbounds nuw %struct.anon.0, ptr %21, i32 0, i32 2
  %23 = load i8, ptr %22, align 1, !tbaa !29
  %24 = zext i8 %23 to i32
  %25 = sub nsw i32 %24, 36
  %26 = call i64 @lj_carith_shift64(i64 noundef %17, i32 noundef %18, i32 noundef %25)
  %27 = call i32 @lj_ir_kint64(ptr noundef %16, i64 noundef %26)
  call void @llvm.lifetime.end.p0(i64 4, ptr %4) #8
  call void @llvm.lifetime.end.p0(i64 8, ptr %3) #8
  ret i32 %27
}