; Function Attrs: nounwind uwtable
define internal i32 @fold_kfold_int64shift(ptr noundef %0) #0 {
  %2 = getelementptr inbounds nuw i8, ptr %0, i64 200
  %3 = load i64, ptr %2, align 8, !tbaa !28
  %4 = getelementptr inbounds nuw i8, ptr %0, i64 208
  %5 = load i32, ptr %4, align 8, !tbaa !28
  %6 = and i32 %5, 63
  %7 = getelementptr inbounds nuw i8, ptr %0, i64 189
  %8 = load i8, ptr %7, align 1, !tbaa !28
  %9 = zext i8 %8 to i32
  %10 = add nsw i32 %9, -36
  %11 = tail call i64 @lj_carith_shift64(i64 noundef %3, i32 noundef %6, i32 noundef %10) #12
  %12 = tail call i32 @lj_ir_kint64(ptr noundef %0, i64 noundef %11) #12
  ret i32 %12
}